; Function Attrs: nounwind sspstrong uwtable
define internal fastcc void @dump_append_ld(ptr noundef %0, i64 noundef %1) unnamed_addr #0 {
  %3 = getelementptr inbounds nuw i8, ptr %0, i64 96
  %4 = load i64, ptr %3, align 8, !tbaa !16
  %5 = add i64 %4, -4075
  %6 = icmp ult i64 %5, -4096
  br i1 %6, label %7, label %buffer_ensure_capa.exit

7:                                                ; preds = %2
  %8 = getelementptr inbounds nuw i8, ptr %0, i64 24
  %9 = load ptr, ptr %8, align 8, !tbaa !23
  %.not24.i.i = icmp eq ptr %9, null
  br i1 %.not24.i.i, label %15, label %10

10:                                               ; preds = %7
  %11 = getelementptr inbounds nuw i8, ptr %0, i64 104
  %12 = tail call i64 @fwrite(ptr noundef nonnull %11, i64 noundef 1, i64 noundef %4, ptr noundef nonnull %9)
  %13 = load i64, ptr %3, align 8, !tbaa !16
  %14 = icmp ult i64 %12, %13
  br i1 %14, label %dump_flush.exit.i, label %dump_flush.exit.i.thread

15:                                               ; preds = %7
  %16 = getelementptr inbounds nuw i8, ptr %0, i64 16
  %17 = load i64, ptr %16, align 8, !tbaa !24
  %.not25.i.i = icmp eq i64 %17, 0
  br i1 %.not25.i.i, label %dump_flush.exit.i.thread, label %18

18:                                               ; preds = %15
  %19 = getelementptr inbounds nuw i8, ptr %0, i64 104
  %20 = tail call i64 @rb_str_cat(i64 noundef %17, ptr noundef nonnull %19, i64 noundef %4) #12
  br label %dump_flush.exit.i.thread

dump_flush.exit.i.thread:                         ; preds = %10, %15, %18
  store i64 0, ptr %3, align 8, !tbaa !16
  br label %buffer_ensure_capa.exit

dump_flush.exit.i:                                ; preds = %10
  %21 = getelementptr inbounds nuw i8, ptr %11, i64 %12
  %22 = sub nuw i64 %13, %12
  tail call void @llvm.memmove.p0.p0.i64(ptr noundef nonnull align 1 %11, ptr noundef nonnull align 1 %21, i64 noundef %22, i1 noundef false) #12
  %23 = load i64, ptr %3, align 8, !tbaa !16
  %24 = sub i64 %23, %12
  store i64 %24, ptr %3, align 8, !tbaa !16
  %25 = add i64 %24, -4075
  %26 = icmp ult i64 %25, -4096
  br i1 %26, label %27, label %buffer_ensure_capa.exit

27:                                               ; preds = %dump_flush.exit.i
  %28 = load i64, ptr @rb_eIOError, align 8, !tbaa !82
  tail call void (i64, ptr, ...) @rb_raise(i64 noundef %28, ptr noundef nonnull @.str.55) #15
  unreachable

buffer_ensure_capa.exit:                          ; preds = %dump_flush.exit.i.thread, %2, %dump_flush.exit.i
  %29 = phi i64 [ 0, %dump_flush.exit.i.thread ], [ %4, %2 ], [ %24, %dump_flush.exit.i ]
  %30 = getelementptr inbounds nuw i8, ptr %0, i64 104
  %31 = getelementptr inbounds nuw i8, ptr %30, i64 %29
  %32 = tail call i32 (ptr, i64, ptr, ...) @ruby_snprintf(ptr noundef nonnull %31, i64 noundef 21, ptr noundef nonnull @.str.89, i64 noundef %1) #12
  %33 = sext i32 %32 to i64
  %34 = load i64, ptr %3, align 8, !tbaa !16
  %35 = add i64 %34, %33
  store i64 %35, ptr %3, align 8, !tbaa !16
  ret void
}